target datalayout = "e-m:e-p270:32:32-p271:32:32-p272:64:64-i64:64-i128:128-f80:128-n8:16:32:64-S128"
target triple = "x86_64-pc-linux-gnu"

%"class.cv::detail::tracking::KuhnMunkres" = type <{ %"class.cv::Mat", %"class.cv::Mat", %"class.std::vector", %"class.std::vector.0", %"class.std::vector.0", i32, [4 x i8] }>
%"class.cv::Mat" = type { i32, i32, i32, i32, ptr, ptr, ptr, ptr, ptr, ptr, %"struct.cv::MatSize", %"struct.cv::MatStep" }
%"struct.cv::MatSize" = type { ptr }
%"struct.cv::MatStep" = type { ptr, [2 x i64] }
%"class.std::vector" = type { %"struct.std::_Vector_base" }
%"struct.std::_Vector_base" = type { %"struct.std::_Vector_base<cv::Point_<int>, std::allocator<cv::Point_<int>>>::_Vector_impl" }
%"struct.std::_Vector_base<cv::Point_<int>, std::allocator<cv::Point_<int>>>::_Vector_impl" = type { %"struct.std::_Vector_base<cv::Point_<int>, std::allocator<cv::Point_<int>>>::_Vector_impl_data" }
%"struct.std::_Vector_base<cv::Point_<int>, std::allocator<cv::Point_<int>>>::_Vector_impl_data" = type { ptr, ptr, ptr }
%"class.std::vector.0" = type { %"struct.std::_Vector_base.1" }
%"struct.std::_Vector_base.1" = type { %"struct.std::_Vector_base<int, std::allocator<int>>::_Vector_impl" }
%"struct.std::_Vector_base<int, std::allocator<int>>::_Vector_impl" = type { %"struct.std::_Vector_base<int, std::allocator<int>>::_Vector_impl_data" }
%"struct.std::_Vector_base<int, std::allocator<int>>::_Vector_impl_data" = type { ptr, ptr, ptr }

; Function Attrs: mustprogress nounwind uwtable
define linkonce_odr hidden noundef nonnull align 4 dereferenceable(4) ptr @_ZNSt6vectorIiSaIiEEixEm(ptr noundef nonnull align 8 dereferenceable(24) %0, i64 noundef %1) #4 comdat align 2 {
  %3 = alloca ptr, align 8
  %4 = alloca i64, align 8
  store ptr %0, ptr %3, align 8, !tbaa !30
  store i64 %1, ptr %4, align 8, !tbaa !40
  %5 = load ptr, ptr %3, align 8
  %6 = getelementptr inbounds nuw %"struct.std::_Vector_base.1", ptr %5, i32 0, i32 0
  %7 = getelementptr inbounds nuw %"struct.std::_Vector_base<int, std::allocator<int>>::_Vector_impl_data", ptr %6, i32 0, i32 0
  %8 = load ptr, ptr %7, align 8, !tbaa !75
  %9 = load i64, ptr %4, align 8, !tbaa !40
  %10 = getelementptr inbounds nuw i32, ptr %8, i64 %9
  ret ptr %10
}

; Function Attrs: inlinehint mustprogress nounwind uwtable
define linkonce_odr hidden noundef ptr @_ZN2cv3Mat3ptrIcEEPT_i(ptr noundef nonnull align 8 dereferenceable(96) %0, i32 noundef %1) #6 comdat align 2 {
  %3 = alloca ptr, align 8
  %4 = alloca i32, align 4
  store ptr %0, ptr %3, align 8, !tbaa !32
  store i32 %1, ptr %4, align 4, !tbaa !36
  %5 = load ptr, ptr %3, align 8
  %6 = getelementptr inbounds nuw %"class.cv::Mat", ptr %5, i32 0, i32 4
  %7 = load ptr, ptr %6, align 8, !tbaa !92
  %8 = getelementptr inbounds nuw %"class.cv::Mat", ptr %5, i32 0, i32 11
  %9 = getelementptr inbounds nuw %"struct.cv::MatStep", ptr %8, i32 0, i32 0
  %10 = load ptr, ptr %9, align 8, !tbaa !93
  %11 = getelementptr inbounds i64, ptr %10, i64 0
  %12 = load i64, ptr %11, align 8, !tbaa !40
  %13 = load i32, ptr %4, align 4, !tbaa !36
  %14 = sext i32 %13 to i64
  %15 = mul i64 %12, %14
  %16 = getelementptr inbounds nuw i8, ptr %7, i64 %15
  ret ptr %16
}

; Function Attrs: mustprogress uwtable
define hidden noundef zeroext i1 @_ZN2cv6detail8tracking11KuhnMunkres21CheckIfOptimumIsFoundEv(ptr noundef nonnull align 8 dereferenceable(268) %0) #5 align 2 {
  %2 = alloca ptr, align 8
  %3 = alloca i32, align 4
  %4 = alloca i32, align 4
  %5 = alloca i32, align 4
  %6 = alloca ptr, align 8
  %7 = alloca i32, align 4
  store ptr %0, ptr %2, align 8, !tbaa !3
  %8 = load ptr, ptr %2, align 8
  call void @llvm.lifetime.start.p0(i64 4, ptr %3) #3
  store i32 0, ptr %3, align 4, !tbaa !36
  call void @llvm.lifetime.start.p0(i64 4, ptr %4) #3
  store i32 0, ptr %4, align 4, !tbaa !36
  br label %9

9:                                                ; preds = %45, %1
  %10 = load i32, ptr %4, align 4, !tbaa !36
  %11 = getelementptr inbounds nuw %"class.cv::detail::tracking::KuhnMunkres", ptr %8, i32 0, i32 5
  %12 = load i32, ptr %11, align 8, !tbaa !8
  %13 = icmp slt i32 %10, %12
  br i1 %13, label %15, label %14

14:                                               ; preds = %9
  store i32 2, ptr %5, align 4
  call void @llvm.lifetime.end.p0(i64 4, ptr %4) #3
  br label %48

15:                                               ; preds = %9
  call void @llvm.lifetime.start.p0(i64 8, ptr %6) #3
  %16 = getelementptr inbounds nuw %"class.cv::detail::tracking::KuhnMunkres", ptr %8, i32 0, i32 1
  %17 = load i32, ptr %4, align 4, !tbaa !36
  %18 = call noundef ptr @_ZN2cv3Mat3ptrIcEEPT_i(ptr noundef nonnull align 8 dereferenceable(96) %16, i32 noundef %17)
  store ptr %18, ptr %6, align 8, !tbaa !42
  call void @llvm.lifetime.start.p0(i64 4, ptr %7) #3
  store i32 0, ptr %7, align 4, !tbaa !36
  br label %19

19:                                               ; preds = %41, %15
  %20 = load i32, ptr %7, align 4, !tbaa !36
  %21 = getelementptr inbounds nuw %"class.cv::detail::tracking::KuhnMunkres", ptr %8, i32 0, i32 5
  %22 = load i32, ptr %21, align 8, !tbaa !8
  %23 = icmp slt i32 %20, %22
  br i1 %23, label %25, label %24

24:                                               ; preds = %19
  store i32 5, ptr %5, align 4
  call void @llvm.lifetime.end.p0(i64 4, ptr %7) #3
  br label %44

25:                                               ; preds = %19
  %26 = load ptr, ptr %6, align 8, !tbaa !42
  %27 = load i32, ptr %7, align 4, !tbaa !36
  %28 = sext i32 %27 to i64
  %29 = getelementptr inbounds i8, ptr %26, i64 %28
  %30 = load i8, ptr %29, align 1, !tbaa !44
  %31 = sext i8 %30 to i32
  %32 = icmp eq i32 %31, 1
  br i1 %32, label %33, label %40

33:                                               ; preds = %25
  %34 = getelementptr inbounds nuw %"class.cv::detail::tracking::KuhnMunkres", ptr %8, i32 0, i32 4
  %35 = load i32, ptr %7, align 4, !tbaa !36
  %36 = sext i32 %35 to i64
  %37 = call noundef nonnull align 4 dereferenceable(4) ptr @_ZNSt6vectorIiSaIiEEixEm(ptr noundef nonnull align 8 dereferenceable(24) %34, i64 noundef %36) #3
  store i32 1, ptr %37, align 4, !tbaa !36
  %38 = load i32, ptr %3, align 4, !tbaa !36
  %39 = add nsw i32 %38, 1
  store i32 %39, ptr %3, align 4, !tbaa !36
  br label %40

40:                                               ; preds = %33, %25
  br label %41

41:                                               ; preds = %40
  %42 = load i32, ptr %7, align 4, !tbaa !36
  %43 = add nsw i32 %42, 1
  store i32 %43, ptr %7, align 4, !tbaa !36
  br label %19, !llvm.loop !101

44:                                               ; preds = %24
  call void @llvm.lifetime.end.p0(i64 8, ptr %6) #3
  br label %45

45:                                               ; preds = %44
  %46 = load i32, ptr %4, align 4, !tbaa !36
  %47 = add nsw i32 %46, 1
  store i32 %47, ptr %4, align 4, !tbaa !36
  br label %9, !llvm.loop !102

48:                                               ; preds = %14
  %49 = load i32, ptr %3, align 4, !tbaa !36
  %50 = getelementptr inbounds nuw %"class.cv::detail::tracking::KuhnMunkres", ptr %8, i32 0, i32 5
  %51 = load i32, ptr %50, align 8, !tbaa !8
  %52 = icmp sge i32 %49, %51
  store i32 1, ptr %5, align 4
  call void @llvm.lifetime.end.p0(i64 4, ptr %3) #3
  ret i1 %52
}