; Function Attrs: mustprogress nofree norecurse nosync nounwind memory(readwrite, inaccessiblemem: none) uwtable
define hidden noundef zeroext i1 @_ZN2cv6detail8tracking11KuhnMunkres21CheckIfOptimumIsFoundEv(ptr noundef nonnull readonly align 8 captures(none) dereferenceable(268) %0) local_unnamed_addr #7 align 2 {
  %2 = getelementptr inbounds nuw i8, ptr %0, i64 264
  %3 = load i32, ptr %2, align 8, !tbaa !30
  %4 = icmp sgt i32 %3, 0
  br i1 %4, label %.lr.ph18.split.preheader, label %._crit_edge19

.lr.ph18.split.preheader:                         ; preds = %1
  %5 = getelementptr inbounds nuw i8, ptr %0, i64 112
  %6 = load ptr, ptr %5, align 8, !tbaa !60
  %7 = getelementptr inbounds nuw i8, ptr %0, i64 168
  %8 = load ptr, ptr %7, align 8, !tbaa !61
  %9 = load i64, ptr %8, align 8, !tbaa !58
  %10 = getelementptr inbounds nuw i8, ptr %0, i64 240
  br label %.lr.ph18.split

._crit_edge19:                                    ; preds = %._crit_edge, %1
  %.010.lcssa = phi i32 [ 0, %1 ], [ %.1.lcssa, %._crit_edge ]
  %.lcssa = phi i32 [ %3, %1 ], [ %17, %._crit_edge ]
  %11 = icmp sge i32 %.010.lcssa, %.lcssa
  ret i1 %11

.lr.ph18.split:                                   ; preds = %.lr.ph18.split.preheader, %._crit_edge
  %12 = phi i32 [ %3, %.lr.ph18.split.preheader ], [ %17, %._crit_edge ]
  %indvars.iv26 = phi i64 [ 0, %.lr.ph18.split.preheader ], [ %indvars.iv.next27, %._crit_edge ]
  %.01016 = phi i32 [ 0, %.lr.ph18.split.preheader ], [ %.1.lcssa, %._crit_edge ]
  %13 = mul i64 %9, %indvars.iv26
  %14 = getelementptr inbounds nuw i8, ptr %6, i64 %13
  %15 = icmp sgt i32 %12, 0
  br i1 %15, label %.lr.ph, label %._crit_edge

.lr.ph:                                           ; preds = %.lr.ph18.split
  %16 = load ptr, ptr %10, align 8
  br label %20

._crit_edge:                                      ; preds = %29, %.lr.ph18.split
  %17 = phi i32 [ %12, %.lr.ph18.split ], [ %30, %29 ]
  %.1.lcssa = phi i32 [ %.01016, %.lr.ph18.split ], [ %.2, %29 ]
  %indvars.iv.next27 = add nuw nsw i64 %indvars.iv26, 1
  %18 = sext i32 %17 to i64
  %19 = icmp slt i64 %indvars.iv.next27, %18
  br i1 %19, label %.lr.ph18.split, label %._crit_edge19, !llvm.loop !67

20:                                               ; preds = %.lr.ph, %29
  %21 = phi i32 [ %12, %.lr.ph ], [ %30, %29 ]
  %22 = phi i32 [ %12, %.lr.ph ], [ %31, %29 ]
  %indvars.iv = phi i64 [ 0, %.lr.ph ], [ %indvars.iv.next, %29 ]
  %.113 = phi i32 [ %.01016, %.lr.ph ], [ %.2, %29 ]
  %23 = getelementptr inbounds nuw i8, ptr %14, i64 %indvars.iv
  %24 = load i8, ptr %23, align 1, !tbaa !63
  %25 = icmp eq i8 %24, 1
  br i1 %25, label %26, label %29

26:                                               ; preds = %20
  %27 = getelementptr inbounds nuw i32, ptr %16, i64 %indvars.iv
  store i32 1, ptr %27, align 4, !tbaa !29
  %28 = add nsw i32 %.113, 1
  %.pre = load i32, ptr %2, align 8, !tbaa !30
  br label %29

29:                                               ; preds = %20, %26
  %30 = phi i32 [ %.pre, %26 ], [ %21, %20 ]
  %31 = phi i32 [ %.pre, %26 ], [ %22, %20 ]
  %.2 = phi i32 [ %28, %26 ], [ %.113, %20 ]
  %indvars.iv.next = add nuw nsw i64 %indvars.iv, 1
  %32 = sext i32 %31 to i64
  %33 = icmp slt i64 %indvars.iv.next, %32
  br i1 %33, label %20, label %._crit_edge, !llvm.loop !69
}